target datalayout = "e-m:e-p270:32:32-p271:32:32-p272:64:64-i64:64-i128:128-f80:128-n8:16:32:64-S128"
target triple = "x86_64-pc-linux-gnu"

%struct.AVFormatContext = type { ptr, ptr, ptr, ptr, ptr, i32, i32, ptr, i32, ptr, i32, ptr, ptr, i64, i64, i64, i32, i32, i32, i64, i64, ptr, i32, i32, ptr, i32, i32, i32, i32, ptr, i64, i32, i32, %struct.AVIOInterruptCB, i32, i32, i32, i32, i64, i32, i32, i32, i32, i32, i32, i32, i32, i32, i32, i32, i32, i64, i32, i32, i32, i32, i32, ptr, ptr, ptr, ptr, i32, ptr, ptr, ptr, ptr, i32, ptr, ptr, i64, ptr, ptr, ptr, i64 }
%struct.AVIOInterruptCB = type { ptr, ptr }

; Function Attrs: nounwind uwtable
define internal i32 @read_table(ptr noundef %0, ptr noundef %1, i32 noundef %2) #0 {
  %4 = alloca i32, align 4
  %5 = alloca ptr, align 8
  %6 = alloca ptr, align 8
  %7 = alloca i32, align 4
  %8 = alloca i32, align 4
  %9 = alloca i32, align 4
  store ptr %0, ptr %5, align 8, !tbaa !14
  store ptr %1, ptr %6, align 8, !tbaa !91
  store i32 %2, ptr %7, align 4, !tbaa !35
  call void @llvm.lifetime.start.p0(i64 4, ptr %8) #6
  store i32 0, ptr %8, align 4, !tbaa !35
  br label %10

10:                                               ; preds = %30, %3
  %11 = load i32, ptr %8, align 4, !tbaa !35
  %12 = load i32, ptr %7, align 4, !tbaa !35
  %13 = icmp ult i32 %11, %12
  br i1 %13, label %14, label %33

14:                                               ; preds = %10
  %15 = load ptr, ptr %5, align 8, !tbaa !14
  %16 = getelementptr inbounds nuw %struct.AVFormatContext, ptr %15, i32 0, i32 4
  %17 = load ptr, ptr %16, align 8, !tbaa !33
  %18 = call i32 @avio_feof(ptr noundef %17)
  %19 = icmp ne i32 %18, 0
  br i1 %19, label %20, label %21

20:                                               ; preds = %14
  store i32 -1094995529, ptr %4, align 4
  store i32 1, ptr %9, align 4
  br label %46

21:                                               ; preds = %14
  %22 = load ptr, ptr %5, align 8, !tbaa !14
  %23 = getelementptr inbounds nuw %struct.AVFormatContext, ptr %22, i32 0, i32 4
  %24 = load ptr, ptr %23, align 8, !tbaa !33
  %25 = call i32 @avio_rl32(ptr noundef %24)
  %26 = load ptr, ptr %6, align 8, !tbaa !91
  %27 = load i32, ptr %8, align 4, !tbaa !35
  %28 = sext i32 %27 to i64
  %29 = getelementptr inbounds i32, ptr %26, i64 %28
  store i32 %25, ptr %29, align 4, !tbaa !35
  br label %30

30:                                               ; preds = %21
  %31 = load i32, ptr %8, align 4, !tbaa !35
  %32 = add nsw i32 %31, 1
  store i32 %32, ptr %8, align 4, !tbaa !35
  br label %10, !llvm.loop !92

33:                                               ; preds = %10
  %34 = load ptr, ptr %5, align 8, !tbaa !14
  %35 = getelementptr inbounds nuw %struct.AVFormatContext, ptr %34, i32 0, i32 4
  %36 = load ptr, ptr %35, align 8, !tbaa !33
  %37 = load i32, ptr %7, align 4, !tbaa !35
  %38 = add i32 %37, 512
  %39 = sub i32 %38, 1
  %40 = and i32 %39, -512
  %41 = load i32, ptr %7, align 4, !tbaa !35
  %42 = sub i32 %40, %41
  %43 = mul i32 4, %42
  %44 = zext i32 %43 to i64
  %45 = call i64 @avio_skip(ptr noundef %36, i64 noundef %44)
  store i32 0, ptr %4, align 4
  store i32 1, ptr %9, align 4
  br label %46

46:                                               ; preds = %33, %20
  call void @llvm.lifetime.end.p0(i64 4, ptr %8) #6
  %47 = load i32, ptr %4, align 4
  ret i32 %47
}