; Function Attrs: nounwind uwtable
define internal fastcc range(i32 -1094995529, 1) i32 @read_table(ptr noundef readonly captures(none) %0, ptr noundef writeonly captures(none) %1, i32 noundef %2) unnamed_addr #1 {
  %.not13 = icmp eq i32 %2, 0
  br i1 %.not13, label %._crit_edge, label %.lr.ph

.lr.ph:                                           ; preds = %3
  %4 = getelementptr inbounds nuw i8, ptr %0, i64 32
  %wide.trip.count = zext i32 %2 to i64
  br label %5

5:                                                ; preds = %.lr.ph, %8
  %indvars.iv = phi i64 [ 0, %.lr.ph ], [ %indvars.iv.next, %8 ]
  %6 = load ptr, ptr %4, align 8, !tbaa !27
  %7 = tail call i32 @avio_feof(ptr noundef %6) #5
  %.not = icmp eq i32 %7, 0
  br i1 %.not, label %8, label %.loopexit

8:                                                ; preds = %5
  %9 = load ptr, ptr %4, align 8, !tbaa !27
  %10 = tail call i32 @avio_rl32(ptr noundef %9) #5
  %11 = getelementptr inbounds nuw i32, ptr %1, i64 %indvars.iv
  store i32 %10, ptr %11, align 4, !tbaa !48
  %indvars.iv.next = add nuw nsw i64 %indvars.iv, 1
  %exitcond.not = icmp eq i64 %indvars.iv.next, %wide.trip.count
  br i1 %exitcond.not, label %._crit_edge, label %5, !llvm.loop !76

._crit_edge:                                      ; preds = %8, %3
  %12 = getelementptr inbounds nuw i8, ptr %0, i64 32
  %13 = load ptr, ptr %12, align 8, !tbaa !27
  %14 = add i32 %2, 511
  %15 = and i32 %14, 1073741312
  %16 = sub i32 %15, %2
  %17 = shl i32 %16, 2
  %18 = zext i32 %17 to i64
  %19 = tail call i64 @avio_skip(ptr noundef %13, i64 noundef %18) #5
  br label %.loopexit

.loopexit:                                        ; preds = %5, %._crit_edge
  %.010 = phi i32 [ 0, %._crit_edge ], [ -1094995529, %5 ]
  ret i32 %.010
}